; Function Attrs: nounwind uwtable
define internal ptr @cmath_isfinite(ptr readnone captures(none) %0, ptr noundef %1) #0 {
  %3 = tail call { double, double } @PyComplex_AsCComplex(ptr noundef %1) #11
  %4 = tail call ptr @PyErr_Occurred() #11
  %.not = icmp eq ptr %4, null
  br i1 %.not, label %5, label %15

5:                                                ; preds = %2
  %6 = extractvalue { double, double } %3, 1
  %7 = extractvalue { double, double } %3, 0
  %8 = tail call double @llvm.fabs.f64(double %7)
  %9 = fcmp one double %8, 0x7FF0000000000000
  %10 = tail call double @llvm.fabs.f64(double %6)
  %11 = fcmp one double %10, 0x7FF0000000000000
  %12 = select i1 %9, i1 %11, i1 false
  %13 = zext i1 %12 to i64
  %14 = tail call ptr @PyBool_FromLong(i64 noundef %13) #11
  br label %15

15:                                               ; preds = %2, %5
  %.0 = phi ptr [ null, %2 ], [ %14, %5 ]
  ret ptr %.0
}